; Function Attrs: nounwind uwtable
define ptr @l_Lake_instMonadStoreNameStateRefT_x27NameMapOfMonadLiftTSTOfMonad___rarg___lambda__4(ptr noundef %0, ptr noundef %1, ptr noundef %2, ptr noundef %3) #0 {
  tail call void @lean_inc_heartbeat() #3
  %5 = tail call noalias ptr @mi_malloc_small(i64 noundef 40) #3
  %6 = icmp eq ptr %5, null
  br i1 %6, label %7, label %lean_alloc_closure.exit

7:                                                ; preds = %4
  tail call void @lean_internal_panic_out_of_memory() #4
  unreachable

lean_alloc_closure.exit:                          ; preds = %4
  %8 = getelementptr inbounds nuw i8, ptr %5, i64 4
  store i32 1, ptr %5, align 4, !tbaa !4
  store i32 -184549336, ptr %8, align 4
  %9 = getelementptr inbounds nuw i8, ptr %5, i64 8
  store ptr @l_Lake_instMonadStoreNameStateRefT_x27NameMapOfMonadLiftTSTOfMonad___rarg___lambda__3, ptr %9, align 8, !tbaa !9
  %10 = getelementptr inbounds nuw i8, ptr %5, i64 16
  store i16 3, ptr %10, align 8, !tbaa !12
  %11 = getelementptr inbounds nuw i8, ptr %5, i64 18
  store i16 2, ptr %11, align 2, !tbaa !12
  %12 = getelementptr inbounds nuw i8, ptr %5, i64 24
  store ptr %1, ptr %12, align 8, !tbaa !9
  %13 = getelementptr inbounds nuw i8, ptr %5, i64 32
  store ptr %2, ptr %13, align 8, !tbaa !9
  tail call void @lean_inc_heartbeat() #3
  %14 = tail call noalias ptr @mi_malloc_small(i64 noundef 40) #3
  %15 = icmp eq ptr %14, null
  br i1 %15, label %16, label %lean_alloc_closure.exit11

16:                                               ; preds = %lean_alloc_closure.exit
  tail call void @lean_internal_panic_out_of_memory() #4
  unreachable

lean_alloc_closure.exit11:                        ; preds = %lean_alloc_closure.exit
  %17 = getelementptr inbounds nuw i8, ptr %14, i64 4
  store i32 1, ptr %14, align 4, !tbaa !4
  store i32 -184549336, ptr %17, align 4
  %18 = getelementptr inbounds nuw i8, ptr %14, i64 8
  store ptr @l_ST_Prim_Ref_modifyGetUnsafe___rarg___boxed, ptr %18, align 8, !tbaa !9
  %19 = getelementptr inbounds nuw i8, ptr %14, i64 16
  store i16 3, ptr %19, align 8, !tbaa !12
  %20 = getelementptr inbounds nuw i8, ptr %14, i64 18
  store i16 2, ptr %20, align 2, !tbaa !12
  %21 = getelementptr inbounds nuw i8, ptr %14, i64 24
  store ptr %3, ptr %21, align 8, !tbaa !9
  %22 = getelementptr inbounds nuw i8, ptr %14, i64 32
  store ptr %5, ptr %22, align 8, !tbaa !9
  %23 = tail call ptr @lean_apply_2(ptr noundef %0, ptr noundef nonnull inttoptr (i64 1 to ptr), ptr noundef nonnull %14) #3
  ret ptr %23
}